target datalayout = "e-m:e-p270:32:32-p271:32:32-p272:64:64-i64:64-i128:128-f80:128-n8:16:32:64-S128"
target triple = "x86_64-pc-linux-gnu"

%struct.H5O_loc_t = type { ptr, i64, i8 }

@.str = private unnamed_addr constant [104 x i8] c"generated/home/dtcxzyw/WorkSpace/Projects/compilers/llvm-opt-benchmark/bench/hdf5/hdf5/src/H5VLnative.c\00", align 1
@H5E_BADTYPE_g = external global i64, align 8
@H5E_ARGS_g = external global i64, align 8
@__func__.H5VL_native_get_file_struct = private unnamed_addr constant [28 x i8] c"H5VL_native_get_file_struct\00", align 1
@.str.14 = private unnamed_addr constant [43 x i8] c"maps not supported in native VOL connector\00", align 1
@.str.15 = private unnamed_addr constant [26 x i8] c"not a file or file object\00", align 1
@.str.16 = private unnamed_addr constant [37 x i8] c"object is not associated with a file\00", align 1

; Function Attrs: nounwind uwtable
define i32 @H5VL_native_get_file_struct(ptr noundef %0, i32 noundef %1, ptr noundef %2) #0 {
  %4 = alloca ptr, align 8
  %5 = alloca i32, align 4
  %6 = alloca ptr, align 8
  %7 = alloca ptr, align 8
  %8 = alloca i32, align 4
  %9 = alloca i8, align 1
  store ptr %0, ptr %4, align 8, !tbaa !16
  store i32 %1, ptr %5, align 4, !tbaa !3
  store ptr %2, ptr %6, align 8, !tbaa !25
  call void @llvm.lifetime.start.p0(i64 8, ptr %7) #5
  store ptr null, ptr %7, align 8, !tbaa !27
  call void @llvm.lifetime.start.p0(i64 4, ptr %8) #5
  store i32 0, ptr %8, align 4, !tbaa !3
  call void @llvm.lifetime.start.p0(i64 1, ptr %9) #5
  store i8 0, ptr %9, align 1, !tbaa !7
  %10 = load ptr, ptr %6, align 8, !tbaa !25
  store ptr null, ptr %10, align 8, !tbaa !23
  %11 = load i32, ptr %5, align 4, !tbaa !3
  switch i32 %11, label %47 [
    i32 1, label %12
    i32 2, label %15
    i32 3, label %18
    i32 5, label %21
    i32 7, label %24
    i32 6, label %27
    i32 -2, label %46
    i32 -1, label %46
    i32 4, label %46
    i32 8, label %46
    i32 9, label %46
    i32 10, label %46
    i32 11, label %46
    i32 12, label %46
    i32 13, label %46
    i32 14, label %46
    i32 15, label %46
    i32 16, label %46
    i32 17, label %46
  ]

12:                                               ; preds = %3
  %13 = load ptr, ptr %4, align 8, !tbaa !16
  %14 = load ptr, ptr %6, align 8, !tbaa !25
  store ptr %13, ptr %14, align 8, !tbaa !23
  br label %66

15:                                               ; preds = %3
  %16 = load ptr, ptr %4, align 8, !tbaa !16
  %17 = call ptr @H5G_oloc(ptr noundef %16)
  store ptr %17, ptr %7, align 8, !tbaa !27
  br label %66

18:                                               ; preds = %3
  %19 = load ptr, ptr %4, align 8, !tbaa !16
  %20 = call ptr @H5T_oloc(ptr noundef %19)
  store ptr %20, ptr %7, align 8, !tbaa !27
  br label %66

21:                                               ; preds = %3
  %22 = load ptr, ptr %4, align 8, !tbaa !16
  %23 = call ptr @H5D_oloc(ptr noundef %22)
  store ptr %23, ptr %7, align 8, !tbaa !27
  br label %66

24:                                               ; preds = %3
  %25 = load ptr, ptr %4, align 8, !tbaa !16
  %26 = call ptr @H5A_oloc(ptr noundef %25)
  store ptr %26, ptr %7, align 8, !tbaa !27
  br label %66

27:                                               ; preds = %3
  br label %28

28:                                               ; preds = %27
  br label %29

29:                                               ; preds = %28
  br label %30

30:                                               ; preds = %29
  %31 = load i64, ptr @H5E_ARGS_g, align 8, !tbaa !12
  %32 = load i64, ptr @H5E_BADTYPE_g, align 8, !tbaa !12
  %33 = call i32 (ptr, ptr, i32, i64, i64, ptr, ...) @H5E_printf_stack(ptr noundef @.str, ptr noundef @__func__.H5VL_native_get_file_struct, i32 noundef 588, i64 noundef %31, i64 noundef %32, ptr noundef @.str.14)
  br label %34

34:                                               ; preds = %30
  br label %35

35:                                               ; preds = %34
  store i8 1, ptr %9, align 1, !tbaa !7
  %36 = load i8, ptr %9, align 1, !tbaa !7, !range !14, !noundef !15
  %37 = trunc i8 %36 to i1
  %38 = zext i1 %37 to i8
  store i8 %38, ptr %9, align 1, !tbaa !7
  br label %39

39:                                               ; preds = %35
  br label %40

40:                                               ; preds = %39
  br label %41

41:                                               ; preds = %40
  store i32 -1, ptr %8, align 4, !tbaa !3
  br label %98

42:                                               ; No predecessors!
  br label %43

43:                                               ; preds = %42
  br label %44

44:                                               ; preds = %43
  br label %45

45:                                               ; preds = %44
  br label %46

46:                                               ; preds = %3, %3, %3, %3, %3, %3, %3, %3, %3, %3, %3, %3, %3, %45
  br label %47

47:                                               ; preds = %3, %46
  br label %48

48:                                               ; preds = %47
  br label %49

49:                                               ; preds = %48
  br label %50

50:                                               ; preds = %49
  %51 = load i64, ptr @H5E_ARGS_g, align 8, !tbaa !12
  %52 = load i64, ptr @H5E_BADTYPE_g, align 8, !tbaa !12
  %53 = call i32 (ptr, ptr, i32, i64, i64, ptr, ...) @H5E_printf_stack(ptr noundef @.str, ptr noundef @__func__.H5VL_native_get_file_struct, i32 noundef 604, i64 noundef %51, i64 noundef %52, ptr noundef @.str.15)
  br label %54

54:                                               ; preds = %50
  br label %55

55:                                               ; preds = %54
  store i8 1, ptr %9, align 1, !tbaa !7
  %56 = load i8, ptr %9, align 1, !tbaa !7, !range !14, !noundef !15
  %57 = trunc i8 %56 to i1
  %58 = zext i1 %57 to i8
  store i8 %58, ptr %9, align 1, !tbaa !7
  br label %59

59:                                               ; preds = %55
  br label %60

60:                                               ; preds = %59
  br label %61

61:                                               ; preds = %60
  store i32 -1, ptr %8, align 4, !tbaa !3
  br label %98

62:                                               ; No predecessors!
  br label %63

63:                                               ; preds = %62
  br label %64

64:                                               ; preds = %63
  br label %65

65:                                               ; preds = %64
  br label %66

66:                                               ; preds = %65, %24, %21, %18, %15, %12
  %67 = load ptr, ptr %7, align 8, !tbaa !27
  %68 = icmp ne ptr %67, null
  br i1 %68, label %69, label %74

69:                                               ; preds = %66
  %70 = load ptr, ptr %7, align 8, !tbaa !27
  %71 = getelementptr inbounds nuw %struct.H5O_loc_t, ptr %70, i32 0, i32 0
  %72 = load ptr, ptr %71, align 8, !tbaa !29
  %73 = load ptr, ptr %6, align 8, !tbaa !25
  store ptr %72, ptr %73, align 8, !tbaa !23
  br label %74

74:                                               ; preds = %69, %66
  %75 = load ptr, ptr %6, align 8, !tbaa !25
  %76 = load ptr, ptr %75, align 8, !tbaa !23
  %77 = icmp ne ptr %76, null
  br i1 %77, label %97, label %78

78:                                               ; preds = %74
  br label %79

79:                                               ; preds = %78
  br label %80

80:                                               ; preds = %79
  br label %81

81:                                               ; preds = %80
  %82 = load i64, ptr @H5E_ARGS_g, align 8, !tbaa !12
  %83 = load i64, ptr @H5E_BADTYPE_g, align 8, !tbaa !12
  %84 = call i32 (ptr, ptr, i32, i64, i64, ptr, ...) @H5E_printf_stack(ptr noundef @.str, ptr noundef @__func__.H5VL_native_get_file_struct, i32 noundef 613, i64 noundef %82, i64 noundef %83, ptr noundef @.str.16)
  br label %85

85:                                               ; preds = %81
  br label %86

86:                                               ; preds = %85
  store i8 1, ptr %9, align 1, !tbaa !7
  %87 = load i8, ptr %9, align 1, !tbaa !7, !range !14, !noundef !15
  %88 = trunc i8 %87 to i1
  %89 = zext i1 %88 to i8
  store i8 %89, ptr %9, align 1, !tbaa !7
  br label %90

90:                                               ; preds = %86
  br label %91

91:                                               ; preds = %90
  br label %92

92:                                               ; preds = %91
  store i32 -1, ptr %8, align 4, !tbaa !3
  br label %98

93:                                               ; No predecessors!
  br label %94

94:                                               ; preds = %93
  br label %95

95:                                               ; preds = %94
  br label %96

96:                                               ; preds = %95
  br label %97

97:                                               ; preds = %96, %74
  br label %98

98:                                               ; preds = %97, %92, %61, %41
  %99 = load i32, ptr %8, align 4, !tbaa !3
  call void @llvm.lifetime.end.p0(i64 1, ptr %9) #5
  call void @llvm.lifetime.end.p0(i64 4, ptr %8) #5
  call void @llvm.lifetime.end.p0(i64 8, ptr %7) #5
  ret i32 %99
}