; Function Attrs: nounwind uwtable
define range(i32 -1, 1) i32 @H5VL_native_get_file_struct(ptr noundef %0, i32 noundef %1, ptr noundef captures(none) initializes((0, 8)) %2) local_unnamed_addr #0 {
  store ptr null, ptr %2, align 8, !tbaa !12
  switch i32 %1, label %16 [
    i32 1, label %.thread
    i32 2, label %4
    i32 3, label %6
    i32 5, label %8
    i32 7, label %10
    i32 6, label %12
  ]

.thread:                                          ; preds = %3
  store ptr %0, ptr %2, align 8, !tbaa !12
  br label %23

4:                                                ; preds = %3
  %5 = tail call ptr @H5G_oloc(ptr noundef %0) #6
  br label %20

6:                                                ; preds = %3
  %7 = tail call ptr @H5T_oloc(ptr noundef %0) #6
  br label %20

8:                                                ; preds = %3
  %9 = tail call ptr @H5D_oloc(ptr noundef %0) #6
  br label %20

10:                                               ; preds = %3
  %11 = tail call ptr @H5A_oloc(ptr noundef %0) #6
  br label %20

12:                                               ; preds = %3
  %13 = load i64, ptr @H5E_ARGS_g, align 8, !tbaa !8
  %14 = load i64, ptr @H5E_BADTYPE_g, align 8, !tbaa !8
  %15 = tail call i32 (ptr, ptr, i32, i64, i64, ptr, ...) @H5E_printf_stack(ptr noundef nonnull @.str, ptr noundef nonnull @__func__.H5VL_native_get_file_struct, i32 noundef 588, i64 noundef %13, i64 noundef %14, ptr noundef nonnull @.str.14) #6
  br label %29

16:                                               ; preds = %3
  %17 = load i64, ptr @H5E_ARGS_g, align 8, !tbaa !8
  %18 = load i64, ptr @H5E_BADTYPE_g, align 8, !tbaa !8
  %19 = tail call i32 (ptr, ptr, i32, i64, i64, ptr, ...) @H5E_printf_stack(ptr noundef nonnull @.str, ptr noundef nonnull @__func__.H5VL_native_get_file_struct, i32 noundef 604, i64 noundef %17, i64 noundef %18, ptr noundef nonnull @.str.15) #6
  br label %29

20:                                               ; preds = %10, %8, %6, %4
  %.015 = phi ptr [ %11, %10 ], [ %9, %8 ], [ %7, %6 ], [ %5, %4 ]
  %.not = icmp eq ptr %.015, null
  br i1 %.not, label %thread-pre-split, label %21

21:                                               ; preds = %20
  %22 = load ptr, ptr %.015, align 8, !tbaa !14
  store ptr %22, ptr %2, align 8, !tbaa !12
  br label %23

thread-pre-split:                                 ; preds = %20
  %.pr = load ptr, ptr %2, align 8, !tbaa !12
  br label %23

23:                                               ; preds = %thread-pre-split, %.thread, %21
  %24 = phi ptr [ %.pr, %thread-pre-split ], [ %0, %.thread ], [ %22, %21 ]
  %.not16 = icmp eq ptr %24, null
  br i1 %.not16, label %25, label %29

25:                                               ; preds = %23
  %26 = load i64, ptr @H5E_ARGS_g, align 8, !tbaa !8
  %27 = load i64, ptr @H5E_BADTYPE_g, align 8, !tbaa !8
  %28 = tail call i32 (ptr, ptr, i32, i64, i64, ptr, ...) @H5E_printf_stack(ptr noundef nonnull @.str, ptr noundef nonnull @__func__.H5VL_native_get_file_struct, i32 noundef 613, i64 noundef %26, i64 noundef %27, ptr noundef nonnull @.str.16) #6
  br label %29

29:                                               ; preds = %23, %25, %16, %12
  %.0 = phi i32 [ -1, %16 ], [ -1, %12 ], [ 0, %23 ], [ -1, %25 ]
  ret i32 %.0
}